target datalayout = "e-m:e-p270:32:32-p271:32:32-p272:64:64-i64:64-i128:128-f80:128-n8:16:32:64-S128"
target triple = "x86_64-pc-linux-gnu"

%struct.H5S_t = type { %struct.H5S_extent_t, %struct.H5S_select_t }
%struct.H5S_extent_t = type { %struct.H5O_shared_t, i32, i32, i64, i32, ptr, ptr }
%struct.H5O_shared_t = type { i32, ptr, i32, %union.anon }
%union.anon = type { %struct.H5O_mesg_loc_t }
%struct.H5O_mesg_loc_t = type { i32, i64 }
%struct.H5S_select_t = type { ptr, i8, [32 x i64], i64, %union.anon.0 }
%union.anon.0 = type { ptr }
%struct.H5S_pnt_list_t = type { [32 x i64], [32 x i64], ptr, ptr, i64, ptr }
%struct.H5S_sel_iter_t = type { ptr, i32, [32 x i64], [32 x i64], i64, i64, i32, %union.anon.1 }
%union.anon.1 = type { %struct.H5S_hyper_iter_t }
%struct.H5S_hyper_iter_t = type { [32 x i64], [32 x i64], i32, i8, [32 x %struct.H5S_hyper_dim_t], [32 x i64], [32 x i64], [32 x i8], [32 x i64], ptr, [32 x ptr] }
%struct.H5S_hyper_dim_t = type { i64, i64, i64, i64 }
%struct.H5S_point_iter_t = type { ptr, ptr }

@H5S_init_g = external global i8, align 1
@H5_libterm_g = external global i8, align 1
@.str = private unnamed_addr constant [102 x i8] c"generated/home/dtcxzyw/WorkSpace/Projects/compilers/llvm-opt-benchmark/bench/hdf5/hdf5/src/H5Spoint.c\00", align 1
@H5E_DATASPACE_g = external global i64, align 8
@__func__.H5S__point_iter_init = private unnamed_addr constant [21 x i8] c"H5S__point_iter_init\00", align 1
@H5E_CANTCOPY_g = external global i64, align 8
@.str.16 = private unnamed_addr constant [22 x i8] c"can't copy point list\00", align 1

; Function Attrs: nounwind uwtable
define internal i32 @H5S__point_iter_init(ptr noundef %0, ptr noundef %1) #0 {
  %3 = alloca ptr, align 8
  %4 = alloca ptr, align 8
  %5 = alloca i32, align 4
  %6 = alloca i8, align 1
  store ptr %0, ptr %3, align 8, !tbaa !3
  store ptr %1, ptr %4, align 8, !tbaa !80
  call void @llvm.lifetime.start.p0(i64 4, ptr %5) #7
  store i32 0, ptr %5, align 4, !tbaa !10
  call void @llvm.lifetime.start.p0(i64 1, ptr %6) #7
  store i8 0, ptr %6, align 1, !tbaa !8
  %7 = load i8, ptr @H5S_init_g, align 1, !tbaa !8, !range !12, !noundef !13
  %8 = trunc i8 %7 to i1
  br i1 %8, label %13, label %9

9:                                                ; preds = %2
  %10 = load i8, ptr @H5_libterm_g, align 1, !tbaa !8, !range !12, !noundef !13
  %11 = trunc i8 %10 to i1
  %12 = xor i1 %11, true
  br label %13

13:                                               ; preds = %9, %2
  %14 = phi i1 [ true, %2 ], [ %12, %9 ]
  %15 = xor i1 %14, true
  %16 = xor i1 %15, true
  %17 = zext i1 %16 to i32
  %18 = sext i32 %17 to i64
  %19 = call i64 @llvm.expect.i64(i64 %18, i64 1)
  %20 = icmp ne i64 %19, 0
  br i1 %20, label %21, label %88

21:                                               ; preds = %13
  %22 = load ptr, ptr %4, align 8, !tbaa !80
  %23 = getelementptr inbounds nuw %struct.H5S_sel_iter_t, ptr %22, i32 0, i32 6
  %24 = load i32, ptr %23, align 8, !tbaa !82
  %25 = and i32 %24, 4096
  %26 = icmp ne i32 %25, 0
  br i1 %26, label %27, label %67

27:                                               ; preds = %21
  %28 = load ptr, ptr %4, align 8, !tbaa !80
  %29 = getelementptr inbounds nuw %struct.H5S_sel_iter_t, ptr %28, i32 0, i32 6
  %30 = load i32, ptr %29, align 8, !tbaa !82
  %31 = and i32 %30, 2
  %32 = icmp ne i32 %31, 0
  br i1 %32, label %67, label %33

33:                                               ; preds = %27
  %34 = load ptr, ptr %3, align 8, !tbaa !3
  %35 = getelementptr inbounds nuw %struct.H5S_t, ptr %34, i32 0, i32 1
  %36 = getelementptr inbounds nuw %struct.H5S_select_t, ptr %35, i32 0, i32 4
  %37 = load ptr, ptr %36, align 8, !tbaa !14
  %38 = load ptr, ptr %3, align 8, !tbaa !3
  %39 = getelementptr inbounds nuw %struct.H5S_t, ptr %38, i32 0, i32 0
  %40 = getelementptr inbounds nuw %struct.H5S_extent_t, ptr %39, i32 0, i32 4
  %41 = load i32, ptr %40, align 8, !tbaa !15
  %42 = call ptr @H5S__copy_pnt_list(ptr noundef %37, i32 noundef %41)
  %43 = load ptr, ptr %4, align 8, !tbaa !80
  %44 = getelementptr inbounds nuw %struct.H5S_sel_iter_t, ptr %43, i32 0, i32 7
  %45 = getelementptr inbounds nuw %struct.H5S_point_iter_t, ptr %44, i32 0, i32 0
  store ptr %42, ptr %45, align 8, !tbaa !14
  %46 = icmp eq ptr null, %42
  br i1 %46, label %47, label %66

47:                                               ; preds = %33
  br label %48

48:                                               ; preds = %47
  br label %49

49:                                               ; preds = %48
  br label %50

50:                                               ; preds = %49
  %51 = load i64, ptr @H5E_DATASPACE_g, align 8, !tbaa !23
  %52 = load i64, ptr @H5E_CANTCOPY_g, align 8, !tbaa !23
  %53 = call i32 (ptr, ptr, i32, i64, i64, ptr, ...) @H5E_printf_stack(ptr noundef @.str, ptr noundef @__func__.H5S__point_iter_init, i32 noundef 191, i64 noundef %51, i64 noundef %52, ptr noundef @.str.16)
  br label %54

54:                                               ; preds = %50
  br label %55

55:                                               ; preds = %54
  store i8 1, ptr %6, align 1, !tbaa !8
  %56 = load i8, ptr %6, align 1, !tbaa !8, !range !12, !noundef !13
  %57 = trunc i8 %56 to i1
  %58 = zext i1 %57 to i8
  store i8 %58, ptr %6, align 1, !tbaa !8
  br label %59

59:                                               ; preds = %55
  br label %60

60:                                               ; preds = %59
  br label %61

61:                                               ; preds = %60
  store i32 -1, ptr %5, align 4, !tbaa !10
  br label %87

62:                                               ; No predecessors!
  br label %63

63:                                               ; preds = %62
  br label %64

64:                                               ; preds = %63
  br label %65

65:                                               ; preds = %64
  br label %66

66:                                               ; preds = %65, %33
  br label %75

67:                                               ; preds = %27, %21
  %68 = load ptr, ptr %3, align 8, !tbaa !3
  %69 = getelementptr inbounds nuw %struct.H5S_t, ptr %68, i32 0, i32 1
  %70 = getelementptr inbounds nuw %struct.H5S_select_t, ptr %69, i32 0, i32 4
  %71 = load ptr, ptr %70, align 8, !tbaa !14
  %72 = load ptr, ptr %4, align 8, !tbaa !80
  %73 = getelementptr inbounds nuw %struct.H5S_sel_iter_t, ptr %72, i32 0, i32 7
  %74 = getelementptr inbounds nuw %struct.H5S_point_iter_t, ptr %73, i32 0, i32 0
  store ptr %71, ptr %74, align 8, !tbaa !14
  br label %75

75:                                               ; preds = %67, %66
  %76 = load ptr, ptr %4, align 8, !tbaa !80
  %77 = getelementptr inbounds nuw %struct.H5S_sel_iter_t, ptr %76, i32 0, i32 7
  %78 = getelementptr inbounds nuw %struct.H5S_point_iter_t, ptr %77, i32 0, i32 0
  %79 = load ptr, ptr %78, align 8, !tbaa !14
  %80 = getelementptr inbounds nuw %struct.H5S_pnt_list_t, ptr %79, i32 0, i32 2
  %81 = load ptr, ptr %80, align 8, !tbaa !35
  %82 = load ptr, ptr %4, align 8, !tbaa !80
  %83 = getelementptr inbounds nuw %struct.H5S_sel_iter_t, ptr %82, i32 0, i32 7
  %84 = getelementptr inbounds nuw %struct.H5S_point_iter_t, ptr %83, i32 0, i32 1
  store ptr %81, ptr %84, align 8, !tbaa !14
  %85 = load ptr, ptr %4, align 8, !tbaa !80
  %86 = getelementptr inbounds nuw %struct.H5S_sel_iter_t, ptr %85, i32 0, i32 0
  store ptr @H5S_sel_iter_point, ptr %86, align 8, !tbaa !85
  br label %87

87:                                               ; preds = %75, %61
  br label %88

88:                                               ; preds = %87, %13
  %89 = load i32, ptr %5, align 4, !tbaa !10
  call void @llvm.lifetime.end.p0(i64 1, ptr %6) #7
  call void @llvm.lifetime.end.p0(i64 4, ptr %5) #7
  ret i32 %89
}