; Function Attrs: nounwind uwtable
define internal range(i32 -1, 1) i32 @H5S__point_iter_init(ptr noundef readonly captures(none) %0, ptr noundef captures(none) %1) #0 {
  %3 = load i8, ptr @H5S_init_g, align 1, !tbaa !3, !range !7, !noundef !8
  %4 = trunc nuw i8 %3 to i1
  %5 = load i8, ptr @H5_libterm_g, align 1, !range !7
  %6 = trunc nuw i8 %5 to i1
  %7 = xor i1 %6, true
  %8 = select i1 %4, i1 true, i1 %7
  br i1 %8, label %9, label %32, !prof !9

9:                                                ; preds = %2
  %10 = getelementptr inbounds nuw i8, ptr %1, i64 544
  %11 = load i32, ptr %10, align 8, !tbaa !73
  %12 = and i32 %11, 4098
  %or.cond = icmp eq i32 %12, 4096
  %13 = getelementptr inbounds nuw i8, ptr %0, i64 360
  %14 = load ptr, ptr %13, align 8, !tbaa !10
  br i1 %or.cond, label %15, label %25

15:                                               ; preds = %9
  %16 = getelementptr inbounds nuw i8, ptr %0, i64 56
  %17 = load i32, ptr %16, align 8, !tbaa !11
  %18 = tail call fastcc ptr @H5S__copy_pnt_list(ptr noundef %14, i32 noundef %17)
  %19 = getelementptr inbounds nuw i8, ptr %1, i64 552
  store ptr %18, ptr %19, align 8, !tbaa !10
  %20 = icmp eq ptr %18, null
  br i1 %20, label %21, label %27

21:                                               ; preds = %15
  %22 = load i64, ptr @H5E_DATASPACE_g, align 8, !tbaa !21
  %23 = load i64, ptr @H5E_CANTCOPY_g, align 8, !tbaa !21
  %24 = tail call i32 (ptr, ptr, i32, i64, i64, ptr, ...) @H5E_printf_stack(ptr noundef nonnull @.str, ptr noundef nonnull @__func__.H5S__point_iter_init, i32 noundef 191, i64 noundef %22, i64 noundef %23, ptr noundef nonnull @.str.16) #15
  br label %32

25:                                               ; preds = %9
  %26 = getelementptr inbounds nuw i8, ptr %1, i64 552
  store ptr %14, ptr %26, align 8, !tbaa !10
  br label %27

27:                                               ; preds = %15, %25
  %28 = phi ptr [ %18, %15 ], [ %14, %25 ]
  %29 = getelementptr inbounds nuw i8, ptr %28, i64 512
  %30 = load ptr, ptr %29, align 8, !tbaa !22
  %31 = getelementptr inbounds nuw i8, ptr %1, i64 560
  store ptr %30, ptr %31, align 8, !tbaa !10
  store ptr @H5S_sel_iter_point, ptr %1, align 8, !tbaa !76
  br label %32

32:                                               ; preds = %21, %27, %2
  %.0 = phi i32 [ 0, %27 ], [ -1, %21 ], [ 0, %2 ]
  ret i32 %.0
}